target datalayout = "e-m:e-p270:32:32-p271:32:32-p272:64:64-i64:64-i128:128-f80:128-n8:16:32:64-S128"
target triple = "x86_64-pc-linux-gnu"

%class.V3ConfigResolver = type { %class.V3ConfigWildcardResolver, %class.V3ConfigWildcardResolver.0, %class.V3ConfigScopeTraceResolver, %"class.std::unordered_map", ptr }
%class.V3ConfigWildcardResolver = type { %class.V3MutexImp, %"class.std::map", %"class.std::map" }
%class.V3MutexImp = type { %"class.std::mutex" }
%"class.std::mutex" = type { %"class.std::__mutex_base" }
%"class.std::__mutex_base" = type { %union.pthread_mutex_t }
%union.pthread_mutex_t = type { %struct.__pthread_mutex_s }
%struct.__pthread_mutex_s = type { i32, i32, i32, i32, i32, i16, i16, %struct.__pthread_internal_list }
%struct.__pthread_internal_list = type { ptr, ptr }
%"class.std::map" = type { %"class.std::_Rb_tree" }
%"class.std::_Rb_tree" = type { %"struct.std::_Rb_tree<const std::__cxx11::basic_string<char>, std::pair<const std::__cxx11::basic_string<char>, V3ConfigModule>, std::_Select1st<std::pair<const std::__cxx11::basic_string<char>, V3ConfigModule>>, std::less<const std::__cxx11::basic_string<char>>>::_Rb_tree_impl" }
%"struct.std::_Rb_tree<const std::__cxx11::basic_string<char>, std::pair<const std::__cxx11::basic_string<char>, V3ConfigModule>, std::_Select1st<std::pair<const std::__cxx11::basic_string<char>, V3ConfigModule>>, std::less<const std::__cxx11::basic_string<char>>>::_Rb_tree_impl" = type { %"struct.std::_Rb_tree_key_compare", %"struct.std::_Rb_tree_header" }
%"struct.std::_Rb_tree_key_compare" = type { %"struct.std::less" }
%"struct.std::less" = type { i8 }
%"struct.std::_Rb_tree_header" = type { %"struct.std::_Rb_tree_node_base", i64 }
%"struct.std::_Rb_tree_node_base" = type { i32, ptr, ptr, ptr }
%class.V3ConfigWildcardResolver.0 = type { %class.V3MutexImp, %"class.std::map.1", %"class.std::map.1" }
%"class.std::map.1" = type { %"class.std::_Rb_tree.2" }
%"class.std::_Rb_tree.2" = type { %"struct.std::_Rb_tree<const std::__cxx11::basic_string<char>, std::pair<const std::__cxx11::basic_string<char>, V3ConfigFile>, std::_Select1st<std::pair<const std::__cxx11::basic_string<char>, V3ConfigFile>>, std::less<const std::__cxx11::basic_string<char>>>::_Rb_tree_impl" }
%"struct.std::_Rb_tree<const std::__cxx11::basic_string<char>, std::pair<const std::__cxx11::basic_string<char>, V3ConfigFile>, std::_Select1st<std::pair<const std::__cxx11::basic_string<char>, V3ConfigFile>>, std::less<const std::__cxx11::basic_string<char>>>::_Rb_tree_impl" = type { %"struct.std::_Rb_tree_key_compare", %"struct.std::_Rb_tree_header" }
%class.V3ConfigScopeTraceResolver = type { %"class.std::vector", %"class.std::map.9" }
%"class.std::vector" = type { %"struct.std::_Vector_base" }
%"struct.std::_Vector_base" = type { %"struct.std::_Vector_base<V3ConfigScopeTraceEntry, std::allocator<V3ConfigScopeTraceEntry>>::_Vector_impl" }
%"struct.std::_Vector_base<V3ConfigScopeTraceEntry, std::allocator<V3ConfigScopeTraceEntry>>::_Vector_impl" = type { %"struct.std::_Vector_base<V3ConfigScopeTraceEntry, std::allocator<V3ConfigScopeTraceEntry>>::_Vector_impl_data" }
%"struct.std::_Vector_base<V3ConfigScopeTraceEntry, std::allocator<V3ConfigScopeTraceEntry>>::_Vector_impl_data" = type { ptr, ptr, ptr }
%"class.std::map.9" = type { %"class.std::_Rb_tree.10" }
%"class.std::_Rb_tree.10" = type { %"struct.std::_Rb_tree<V3ConfigScopeTraceEntryMatch, std::pair<const V3ConfigScopeTraceEntryMatch, bool>, std::_Select1st<std::pair<const V3ConfigScopeTraceEntryMatch, bool>>, std::less<V3ConfigScopeTraceEntryMatch>>::_Rb_tree_impl" }
%"struct.std::_Rb_tree<V3ConfigScopeTraceEntryMatch, std::pair<const V3ConfigScopeTraceEntryMatch, bool>, std::_Select1st<std::pair<const V3ConfigScopeTraceEntryMatch, bool>>, std::less<V3ConfigScopeTraceEntryMatch>>::_Rb_tree_impl" = type { %"struct.std::_Rb_tree_key_compare.14", %"struct.std::_Rb_tree_header" }
%"struct.std::_Rb_tree_key_compare.14" = type { %"struct.std::less.15" }
%"struct.std::less.15" = type { i8 }
%"class.std::unordered_map" = type { %"class.std::_Hashtable" }
%"class.std::_Hashtable" = type { ptr, i64, %"struct.std::__detail::_Hash_node_base", i64, %"struct.std::__detail::_Prime_rehash_policy", ptr }
%"struct.std::__detail::_Hash_node_base" = type { ptr }
%"struct.std::__detail::_Prime_rehash_policy" = type { float, i64 }

@__dso_handle = external hidden global i8
@_ZZN16V3ConfigResolver1sEvE11s_singleton = linkonce_odr dso_local global %class.V3ConfigResolver zeroinitializer, comdat, align 8
@_ZGVZN16V3ConfigResolver1sEvE11s_singleton = linkonce_odr dso_local global i64 0, comdat, align 8

; Function Attrs: mustprogress nounwind uwtable
define linkonce_odr dso_local noundef nonnull align 8 dereferenceable(72) ptr @_ZN16V3ConfigResolver11scopeTracesEv(ptr noundef nonnull align 8 dereferenceable(408) %0) #5 comdat align 2 {
  %2 = alloca ptr, align 8
  store ptr %0, ptr %2, align 8
  %3 = load ptr, ptr %2, align 8
  %4 = getelementptr inbounds %class.V3ConfigResolver, ptr %3, i32 0, i32 2
  ret ptr %4
}

; Function Attrs: mustprogress nounwind uwtable
define linkonce_odr dso_local noundef nonnull align 8 dereferenceable(408) ptr @_ZN16V3ConfigResolver1sEv() #5 comdat align 2 {
  %1 = load atomic i8, ptr @_ZGVZN16V3ConfigResolver1sEvE11s_singleton acquire, align 8
  %2 = icmp eq i8 %1, 0
  br i1 %2, label %3, label %8, !prof !5

3:                                                ; preds = %0
  %4 = call i32 @__cxa_guard_acquire(ptr @_ZGVZN16V3ConfigResolver1sEvE11s_singleton) #3
  %5 = icmp ne i32 %4, 0
  br i1 %5, label %6, label %8

6:                                                ; preds = %3
  call void @_ZN16V3ConfigResolverC2Ev(ptr noundef nonnull align 8 dereferenceable(408) @_ZZN16V3ConfigResolver1sEvE11s_singleton) #3
  %7 = call i32 @__cxa_atexit(ptr @_ZN16V3ConfigResolverD2Ev, ptr @_ZZN16V3ConfigResolver1sEvE11s_singleton, ptr @__dso_handle) #3
  call void @__cxa_guard_release(ptr @_ZGVZN16V3ConfigResolver1sEvE11s_singleton) #3
  br label %8

8:                                                ; preds = %6, %3, %0
  ret ptr @_ZZN16V3ConfigResolver1sEvE11s_singleton
}

; Function Attrs: mustprogress uwtable
define dso_local void @_ZN8V3Config15addScopeTraceOnEbRKNSt7__cxx1112basic_stringIcSt11char_traitsIcESaIcEEEi(i1 noundef zeroext %0, ptr noundef nonnull align 8 dereferenceable(32) %1, i32 noundef %2) #4 align 2 {
  %4 = alloca i8, align 1
  %5 = alloca ptr, align 8
  %6 = alloca i32, align 4
  %7 = zext i1 %0 to i8
  store i8 %7, ptr %4, align 1
  store ptr %1, ptr %5, align 8
  store i32 %2, ptr %6, align 4
  %8 = call noundef nonnull align 8 dereferenceable(408) ptr @_ZN16V3ConfigResolver1sEv()
  %9 = call noundef nonnull align 8 dereferenceable(72) ptr @_ZN16V3ConfigResolver11scopeTracesEv(ptr noundef nonnull align 8 dereferenceable(408) %8)
  %10 = load i8, ptr %4, align 1
  %11 = trunc i8 %10 to i1
  %12 = load ptr, ptr %5, align 8
  %13 = load i32, ptr %6, align 4
  call void @_ZN26V3ConfigScopeTraceResolver15addScopeTraceOnEbRKNSt7__cxx1112basic_stringIcSt11char_traitsIcESaIcEEEi(ptr noundef nonnull align 8 dereferenceable(72) %9, i1 noundef zeroext %11, ptr noundef nonnull align 8 dereferenceable(32) %12, i32 noundef %13)
  ret void
}