; Function Attrs: mustprogress uwtable
define dso_local void @_ZN8V3Config15addScopeTraceOnEbRKNSt7__cxx1112basic_stringIcSt11char_traitsIcESaIcEEEi(i1 noundef zeroext %0, ptr noundef nonnull align 8 dereferenceable(32) %1, i32 noundef %2) local_unnamed_addr #3 align 2 {
  %4 = load atomic i8, ptr @_ZGVZN16V3ConfigResolver1sEvE11s_singleton acquire, align 8
  %5 = icmp eq i8 %4, 0
  br i1 %5, label %6, label %_ZN16V3ConfigResolver1sEv.exit, !prof !5

6:                                                ; preds = %3
  %7 = tail call i32 @__cxa_guard_acquire(ptr nonnull @_ZGVZN16V3ConfigResolver1sEvE11s_singleton) #18
  %.not.i = icmp eq i32 %7, 0
  br i1 %.not.i, label %_ZN16V3ConfigResolver1sEv.exit, label %8

8:                                                ; preds = %6
  tail call void @_ZN16V3ConfigResolverC2Ev(ptr noundef nonnull align 8 dereferenceable(408) @_ZZN16V3ConfigResolver1sEvE11s_singleton) #18
  %9 = tail call i32 @__cxa_atexit(ptr nonnull @_ZN16V3ConfigResolverD2Ev, ptr nonnull @_ZZN16V3ConfigResolver1sEvE11s_singleton, ptr nonnull @__dso_handle) #18
  tail call void @__cxa_guard_release(ptr nonnull @_ZGVZN16V3ConfigResolver1sEvE11s_singleton) #18
  br label %_ZN16V3ConfigResolver1sEv.exit

_ZN16V3ConfigResolver1sEv.exit:                   ; preds = %3, %6, %8
  tail call void @_ZN26V3ConfigScopeTraceResolver15addScopeTraceOnEbRKNSt7__cxx1112basic_stringIcSt11char_traitsIcESaIcEEEi(ptr noundef nonnull align 8 dereferenceable(72) getelementptr inbounds (%class.V3ConfigResolver, ptr @_ZZN16V3ConfigResolver1sEvE11s_singleton, i64 0, i32 2, i32 0, i32 0, i32 0, i32 0, i32 0), i1 noundef zeroext %0, ptr noundef nonnull align 8 dereferenceable(32) %1, i32 noundef %2)
  ret void
}